target datalayout = "e-m:e-p270:32:32-p271:32:32-p272:64:64-i64:64-i128:128-f80:128-n8:16:32:64-S128"
target triple = "x86_64-pc-linux-gnu"

%struct.darktable_t = type { %struct.dt_codepath_t, i32, i32, ptr, ptr, ptr, ptr, ptr, ptr, ptr, ptr, ptr, ptr, ptr, ptr, ptr, ptr, ptr, ptr, ptr, ptr, ptr, ptr, ptr, ptr, ptr, ptr, ptr, ptr, ptr, [64 x %struct.dt_pthread_mutex_t], %struct.dt_pthread_mutex_t, %struct.dt_pthread_mutex_t, %struct.dt_pthread_mutex_t, %struct.dt_pthread_mutex_t, %struct.dt_pthread_mutex_t, ptr, ptr, ptr, ptr, ptr, ptr, ptr, ptr, ptr, ptr, ptr, ptr, ptr, %struct.dt_lua_state_t, ptr, double, ptr, i32, [47 x i32], i32, i32, ptr, ptr, %struct.dt_sys_resources_t, %struct.dt_backthumb_t, %struct.dt_gimp_t }
%struct.dt_codepath_t = type { i8, [3 x i8] }
%struct.dt_pthread_mutex_t = type { %union.pthread_mutex_t }
%union.pthread_mutex_t = type { %struct.__pthread_mutex_s }
%struct.__pthread_mutex_s = type { i32, i32, i32, i32, i32, i16, i16, %struct.__pthread_internal_list }
%struct.__pthread_internal_list = type { ptr, ptr }
%struct.dt_lua_state_t = type { i32 }
%struct.dt_sys_resources_t = type { i64, i64, ptr, ptr, i32 }
%struct.dt_backthumb_t = type { double, double, i32, i32, i32, i32 }
%struct.dt_gimp_t = type { i32, ptr, ptr, i32, i32 }

@darktable = external global %struct.darktable_t, align 8
@.str = private unnamed_addr constant [41 x i8] c"[sql] %s:%d, function %s(): prepare \22%s\22\00", align 1
@.str.1 = private unnamed_addr constant [115 x i8] c"generated/home/dtcxzyw/WorkSpace/Projects/compilers/llvm-opt-benchmark/bench/darktable/darktable/src/common/tags.c\00", align 1
@stderr = external global ptr, align 8
@.str.3 = private unnamed_addr constant [53 x i8] c"sqlite3 error: %s:%d, function %s(), query \22%s\22: %s\0A\00", align 1
@.str.21 = private unnamed_addr constant [38 x i8] c"[sql] %s:%d, function %s(): exec \22%s\22\00", align 1
@__FUNCTION__.dt_set_darktable_tags = private unnamed_addr constant [22 x i8] c"dt_set_darktable_tags\00", align 1
@.str.22 = private unnamed_addr constant [34 x i8] c"DELETE FROM memory.darktable_tags\00", align 1
@.str.23 = private unnamed_addr constant [107 x i8] c"INSERT INTO memory.darktable_tags (tagid) SELECT DISTINCT id FROM data.tags WHERE name LIKE 'darktable|%%'\00", align 1

; Function Attrs: nounwind uwtable
define void @dt_set_darktable_tags() #0 {
  %1 = alloca i32, align 4
  %2 = alloca ptr, align 8
  %3 = alloca i32, align 4
  br label %4

4:                                                ; preds = %0
  br label %5

5:                                                ; preds = %4
  %6 = load i32, ptr getelementptr inbounds nuw (%struct.darktable_t, ptr @darktable, i32 0, i32 2), align 8, !tbaa !14
  %7 = and i32 256, %6
  %8 = icmp ne i32 %7, 0
  br i1 %8, label %9, label %15

9:                                                ; preds = %5
  %10 = load i32, ptr getelementptr inbounds nuw (%struct.darktable_t, ptr @darktable, i32 0, i32 2), align 8, !tbaa !14
  %11 = xor i32 %10, -1
  %12 = and i32 0, %11
  %13 = icmp ne i32 %12, 0
  br i1 %13, label %15, label %14

14:                                               ; preds = %9
  call void (ptr, ...) @dt_print_ext(ptr noundef @.str.21, ptr noundef @.str.1, i32 noundef 686, ptr noundef @__FUNCTION__.dt_set_darktable_tags, ptr noundef @.str.22)
  br label %15

15:                                               ; preds = %14, %9, %5
  br label %16

16:                                               ; preds = %15
  call void @llvm.lifetime.start.p0(i64 4, ptr %1) #8
  %17 = load ptr, ptr getelementptr inbounds nuw (%struct.darktable_t, ptr @darktable, i32 0, i32 18), align 8, !tbaa !51
  %18 = call ptr @dt_database_get(ptr noundef %17)
  %19 = call i32 @sqlite3_exec(ptr noundef %18, ptr noundef @.str.22, ptr noundef null, ptr noundef null, ptr noundef null)
  store i32 %19, ptr %1, align 4, !tbaa !52
  %20 = load i32, ptr %1, align 4, !tbaa !52
  %21 = icmp ne i32 %20, 0
  br i1 %21, label %22, label %28

22:                                               ; preds = %16
  %23 = load ptr, ptr @stderr, align 8, !tbaa !53
  %24 = load ptr, ptr getelementptr inbounds nuw (%struct.darktable_t, ptr @darktable, i32 0, i32 18), align 8, !tbaa !51
  %25 = call ptr @dt_database_get(ptr noundef %24)
  %26 = call ptr @sqlite3_errmsg(ptr noundef %25)
  %27 = call i32 (ptr, ptr, ...) @fprintf(ptr noundef %23, ptr noundef @.str.3, ptr noundef @.str.1, i32 noundef 686, ptr noundef @__FUNCTION__.dt_set_darktable_tags, ptr noundef @.str.22, ptr noundef %26) #8
  br label %28

28:                                               ; preds = %22, %16
  call void @llvm.lifetime.end.p0(i64 4, ptr %1) #8
  br label %29

29:                                               ; preds = %28
  call void @llvm.lifetime.start.p0(i64 8, ptr %2) #8
  br label %30

30:                                               ; preds = %29
  br label %31

31:                                               ; preds = %30
  %32 = load i32, ptr getelementptr inbounds nuw (%struct.darktable_t, ptr @darktable, i32 0, i32 2), align 8, !tbaa !14
  %33 = and i32 256, %32
  %34 = icmp ne i32 %33, 0
  br i1 %34, label %35, label %41

35:                                               ; preds = %31
  %36 = load i32, ptr getelementptr inbounds nuw (%struct.darktable_t, ptr @darktable, i32 0, i32 2), align 8, !tbaa !14
  %37 = xor i32 %36, -1
  %38 = and i32 0, %37
  %39 = icmp ne i32 %38, 0
  br i1 %39, label %41, label %40

40:                                               ; preds = %35
  call void (ptr, ...) @dt_print_ext(ptr noundef @.str, ptr noundef @.str.1, i32 noundef 695, ptr noundef @__FUNCTION__.dt_set_darktable_tags, ptr noundef @.str.23)
  br label %41

41:                                               ; preds = %40, %35, %31
  br label %42

42:                                               ; preds = %41
  br label %43

43:                                               ; preds = %42
  call void @llvm.lifetime.start.p0(i64 4, ptr %3) #8
  %44 = load ptr, ptr getelementptr inbounds nuw (%struct.darktable_t, ptr @darktable, i32 0, i32 18), align 8, !tbaa !51
  %45 = call ptr @dt_database_get(ptr noundef %44)
  %46 = call i32 @sqlite3_prepare_v2(ptr noundef %45, ptr noundef @.str.23, i32 noundef -1, ptr noundef %2, ptr noundef null)
  store i32 %46, ptr %3, align 4, !tbaa !52
  %47 = load i32, ptr %3, align 4, !tbaa !52
  %48 = icmp ne i32 %47, 0
  br i1 %48, label %49, label %55

49:                                               ; preds = %43
  %50 = load ptr, ptr @stderr, align 8, !tbaa !53
  %51 = load ptr, ptr getelementptr inbounds nuw (%struct.darktable_t, ptr @darktable, i32 0, i32 18), align 8, !tbaa !51
  %52 = call ptr @dt_database_get(ptr noundef %51)
  %53 = call ptr @sqlite3_errmsg(ptr noundef %52)
  %54 = call i32 (ptr, ptr, ...) @fprintf(ptr noundef %50, ptr noundef @.str.3, ptr noundef @.str.1, i32 noundef 695, ptr noundef @__FUNCTION__.dt_set_darktable_tags, ptr noundef @.str.23, ptr noundef %53) #8
  br label %55

55:                                               ; preds = %49, %43
  call void @llvm.lifetime.end.p0(i64 4, ptr %3) #8
  br label %56

56:                                               ; preds = %55
  br label %57

57:                                               ; preds = %56
  %58 = load ptr, ptr %2, align 8, !tbaa !55
  %59 = call i32 @sqlite3_step(ptr noundef %58)
  %60 = load ptr, ptr %2, align 8, !tbaa !55
  %61 = call i32 @sqlite3_finalize(ptr noundef %60)
  call void @llvm.lifetime.end.p0(i64 8, ptr %2) #8
  ret void
}