; Function Attrs: nounwind uwtable
define void @dt_set_darktable_tags() local_unnamed_addr #0 {
  %1 = alloca ptr, align 8
  %2 = load i32, ptr getelementptr inbounds nuw (i8, ptr @darktable, i64 8), align 8, !tbaa !9
  %3 = and i32 %2, 256
  %.not = icmp eq i32 %3, 0
  br i1 %.not, label %5, label %4

4:                                                ; preds = %0
  tail call void (ptr, ...) @dt_print_ext(ptr noundef nonnull @.str.21, ptr noundef nonnull @.str.1, i32 noundef 686, ptr noundef nonnull @__FUNCTION__.dt_set_darktable_tags, ptr noundef nonnull @.str.22) #11
  br label %5

5:                                                ; preds = %0, %4
  %6 = load ptr, ptr getelementptr inbounds nuw (i8, ptr @darktable, i64 136), align 8, !tbaa !49
  %7 = tail call ptr @dt_database_get(ptr noundef %6) #11
  %8 = tail call i32 @sqlite3_exec(ptr noundef %7, ptr noundef nonnull @.str.22, ptr noundef null, ptr noundef null, ptr noundef null) #11
  %.not2 = icmp eq i32 %8, 0
  br i1 %.not2, label %15, label %9

9:                                                ; preds = %5
  %10 = load ptr, ptr @stderr, align 8, !tbaa !50
  %11 = load ptr, ptr getelementptr inbounds nuw (i8, ptr @darktable, i64 136), align 8, !tbaa !49
  %12 = tail call ptr @dt_database_get(ptr noundef %11) #11
  %13 = tail call ptr @sqlite3_errmsg(ptr noundef %12) #11
  %14 = tail call i32 (ptr, ptr, ...) @fprintf(ptr noundef %10, ptr noundef nonnull @.str.3, ptr noundef nonnull @.str.1, i32 noundef 686, ptr noundef nonnull @__FUNCTION__.dt_set_darktable_tags, ptr noundef nonnull @.str.22, ptr noundef %13) #12
  br label %15

15:                                               ; preds = %9, %5
  call void @llvm.lifetime.start.p0(i64 8, ptr nonnull %1) #11
  %16 = load i32, ptr getelementptr inbounds nuw (i8, ptr @darktable, i64 8), align 8, !tbaa !9
  %17 = and i32 %16, 256
  %.not3 = icmp eq i32 %17, 0
  br i1 %.not3, label %19, label %18

18:                                               ; preds = %15
  tail call void (ptr, ...) @dt_print_ext(ptr noundef nonnull @.str, ptr noundef nonnull @.str.1, i32 noundef 695, ptr noundef nonnull @__FUNCTION__.dt_set_darktable_tags, ptr noundef nonnull @.str.23) #11
  br label %19

19:                                               ; preds = %18, %15
  %20 = load ptr, ptr getelementptr inbounds nuw (i8, ptr @darktable, i64 136), align 8, !tbaa !49
  %21 = tail call ptr @dt_database_get(ptr noundef %20) #11
  %22 = call i32 @sqlite3_prepare_v2(ptr noundef %21, ptr noundef nonnull @.str.23, i32 noundef -1, ptr noundef nonnull %1, ptr noundef null) #11
  %.not4 = icmp eq i32 %22, 0
  br i1 %.not4, label %29, label %23

23:                                               ; preds = %19
  %24 = load ptr, ptr @stderr, align 8, !tbaa !50
  %25 = load ptr, ptr getelementptr inbounds nuw (i8, ptr @darktable, i64 136), align 8, !tbaa !49
  %26 = call ptr @dt_database_get(ptr noundef %25) #11
  %27 = call ptr @sqlite3_errmsg(ptr noundef %26) #11
  %28 = call i32 (ptr, ptr, ...) @fprintf(ptr noundef %24, ptr noundef nonnull @.str.3, ptr noundef nonnull @.str.1, i32 noundef 695, ptr noundef nonnull @__FUNCTION__.dt_set_darktable_tags, ptr noundef nonnull @.str.23, ptr noundef %27) #12
  br label %29

29:                                               ; preds = %23, %19
  %30 = load ptr, ptr %1, align 8, !tbaa !52
  %31 = call i32 @sqlite3_step(ptr noundef %30) #11
  %32 = load ptr, ptr %1, align 8, !tbaa !52
  %33 = call i32 @sqlite3_finalize(ptr noundef %32) #11
  call void @llvm.lifetime.end.p0(i64 8, ptr nonnull %1) #11
  ret void
}